; ModuleID = 'source-C-CXX/24/1284.cpp'
source_filename = "source-C-CXX/24/1284.cpp"
target datalayout = "e-m:e-p270:32:32-p271:32:32-p272:64:64-i64:64-f80:128-n8:16:32:64-S128"
target triple = "x86_64-pc-linux-gnu"

%"class.std::ios_base::Init" = type { i8 }
%"class.std::basic_istream" = type { i32 (...)**, i64, %"class.std::basic_ios" }
%"class.std::basic_ios" = type { %"class.std::ios_base", %"class.std::basic_ostream"*, i8, i8, %"class.std::basic_streambuf"*, %"class.std::ctype"*, %"class.std::num_put"*, %"class.std::num_get"* }
%"class.std::ios_base" = type { i32 (...)**, i64, i64, i32, i32, i32, %"struct.std::ios_base::_Callback_list"*, %"struct.std::ios_base::_Words", [8 x %"struct.std::ios_base::_Words"], i32, %"struct.std::ios_base::_Words"*, %"class.std::locale" }
%"struct.std::ios_base::_Callback_list" = type { %"struct.std::ios_base::_Callback_list"*, void (i32, %"class.std::ios_base"*, i32)*, i32, i32 }
%"struct.std::ios_base::_Words" = type { i8*, i64 }
%"class.std::locale" = type { %"class.std::locale::_Impl"* }
%"class.std::locale::_Impl" = type { i32, %"class.std::locale::facet"**, i64, %"class.std::locale::facet"**, i8** }
%"class.std::locale::facet" = type <{ i32 (...)**, i32, [4 x i8] }>
%"class.std::basic_ostream" = type { i32 (...)**, %"class.std::basic_ios" }
%"class.std::basic_streambuf" = type { i32 (...)**, i8*, i8*, i8*, i8*, i8*, i8*, %"class.std::locale" }
%"class.std::ctype" = type <{ %"class.std::locale::facet.base", [4 x i8], %struct.__locale_struct*, i8, [7 x i8], i32*, i32*, i16*, i8, [256 x i8], [256 x i8], i8, [6 x i8] }>
%"class.std::locale::facet.base" = type <{ i32 (...)**, i32 }>
%struct.__locale_struct = type { [13 x %struct.__locale_data*], i16*, i32*, i32*, [13 x i8*] }
%struct.__locale_data = type opaque
%"class.std::num_put" = type { %"class.std::locale::facet.base", [4 x i8] }
%"class.std::num_get" = type { %"class.std::locale::facet.base", [4 x i8] }

@_ZStL8__ioinit = internal global %"class.std::ios_base::Init" zeroinitializer, align 1
@__dso_handle = external hidden global i8
@_ZSt3cin = external global %"class.std::basic_istream", align 8
@_ZSt4cout = external global %"class.std::basic_ostream", align 8
@llvm.global_ctors = appending global [1 x { i32, void ()*, i8* }] [{ i32, void ()*, i8* } { i32 65535, void ()* @_GLOBAL__sub_I_1284.cpp, i8* null }]

declare void @_ZNSt8ios_base4InitC1Ev(%"class.std::ios_base::Init"* nonnull align 1 dereferenceable(1)) unnamed_addr #0

; Function Attrs: nounwind
declare void @_ZNSt8ios_base4InitD1Ev(%"class.std::ios_base::Init"* nonnull align 1 dereferenceable(1)) unnamed_addr #1

; Function Attrs: nofree nounwind
declare i32 @__cxa_atexit(void (i8*)*, i8*, i8*) local_unnamed_addr #2

; Function Attrs: mustprogress norecurse sspstrong uwtable
define dso_local i32 @main() local_unnamed_addr #3 {
  %1 = alloca i32, align 4
  %2 = alloca [1005 x i32], align 16
  %3 = bitcast i32* %1 to i8*
  call void @llvm.lifetime.start.p0i8(i64 4, i8* nonnull %3) #8
  %4 = bitcast [1005 x i32]* %2 to i8*
  call void @llvm.lifetime.start.p0i8(i64 4020, i8* nonnull %4) #8
  call void @llvm.memset.p0i8.i64(i8* noundef nonnull align 16 dereferenceable(4020) %4, i8 0, i64 4020, i1 false)
  %5 = call nonnull align 8 dereferenceable(16) %"class.std::basic_istream"* @_ZNSirsERi(%"class.std::basic_istream"* nonnull align 8 dereferenceable(16) @_ZSt3cin, i32* nonnull align 4 dereferenceable(4) %1)
  %6 = load i32, i32* %1, align 4, !tbaa !5
  %7 = getelementptr inbounds [1005 x i32], [1005 x i32]* %2, i64 0, i64 0
  %8 = icmp slt i32 %6, 0
  br i1 %8, label %11, label %14

9:                                                ; preds = %107
  %10 = icmp sgt i32 %108, 0
  br i1 %10, label %11, label %121

11:                                               ; preds = %0, %9
  %12 = phi i32 [ %108, %9 ], [ 1, %0 ]
  %13 = zext i32 %12 to i64
  br label %111

14:                                               ; preds = %0, %107
  %15 = phi i32 [ %108, %107 ], [ 1, %0 ]
  %16 = phi i32 [ %109, %107 ], [ 0, %0 ]
  switch i32 %16, label %19 [
    i32 0, label %17
    i32 1, label %18
  ]

17:                                               ; preds = %14
  store i32 1, i32* %7, align 16, !tbaa !5
  br label %107

18:                                               ; preds = %14
  store i32 2, i32* %7, align 16, !tbaa !5
  br label %107

19:                                               ; preds = %14
  %20 = add nsw i32 %15, -1
  %21 = sext i32 %20 to i64
  %22 = getelementptr inbounds [1005 x i32], [1005 x i32]* %2, i64 0, i64 %21
  %23 = load i32, i32* %22, align 4, !tbaa !5
  %24 = icmp sgt i32 %23, 4
  %25 = zext i1 %24 to i32
  %26 = add i32 %15, %25
  %27 = icmp sgt i32 %26, 0
  br i1 %27, label %28, label %107

28:                                               ; preds = %19
  %29 = zext i32 %26 to i64
  %30 = icmp ult i32 %26, 8
  br i1 %30, label %83, label %31

31:                                               ; preds = %28
  %32 = and i64 %29, 4294967288
  %33 = add nsw i64 %32, -8
  %34 = lshr exact i64 %33, 3
  %35 = add nuw nsw i64 %34, 1
  %36 = and i64 %35, 1
  %37 = icmp eq i64 %33, 0
  br i1 %37, label %67, label %38

38:                                               ; preds = %31
  %39 = and i64 %35, 4611686018427387902
  br label %40

40:                                               ; preds = %40, %38
  %41 = phi i64 [ 0, %38 ], [ %64, %40 ]
  %42 = phi i64 [ %39, %38 ], [ %65, %40 ]
  %43 = getelementptr inbounds [1005 x i32], [1005 x i32]* %2, i64 0, i64 %41
  %44 = bitcast i32* %43 to <4 x i32>*
  %45 = load <4 x i32>, <4 x i32>* %44, align 16, !tbaa !5
  %46 = getelementptr inbounds i32, i32* %43, i64 4
  %47 = bitcast i32* %46 to <4 x i32>*
  %48 = load <4 x i32>, <4 x i32>* %47, align 16, !tbaa !5
  %49 = shl nsw <4 x i32> %45, <i32 1, i32 1, i32 1, i32 1>
  %50 = shl nsw <4 x i32> %48, <i32 1, i32 1, i32 1, i32 1>
  %51 = bitcast i32* %43 to <4 x i32>*
  store <4 x i32> %49, <4 x i32>* %51, align 16, !tbaa !5
  %52 = bitcast i32* %46 to <4 x i32>*
  store <4 x i32> %50, <4 x i32>* %52, align 16, !tbaa !5
  %53 = or i64 %41, 8
  %54 = getelementptr inbounds [1005 x i32], [1005 x i32]* %2, i64 0, i64 %53
  %55 = bitcast i32* %54 to <4 x i32>*
  %56 = load <4 x i32>, <4 x i32>* %55, align 16, !tbaa !5
  %57 = getelementptr inbounds i32, i32* %54, i64 4
  %58 = bitcast i32* %57 to <4 x i32>*
  %59 = load <4 x i32>, <4 x i32>* %58, align 16, !tbaa !5
  %60 = shl nsw <4 x i32> %56, <i32 1, i32 1, i32 1, i32 1>
  %61 = shl nsw <4 x i32> %59, <i32 1, i32 1, i32 1, i32 1>
  %62 = bitcast i32* %54 to <4 x i32>*
  store <4 x i32> %60, <4 x i32>* %62, align 16, !tbaa !5
  %63 = bitcast i32* %57 to <4 x i32>*
  store <4 x i32> %61, <4 x i32>* %63, align 16, !tbaa !5
  %64 = add nuw i64 %41, 16
  %65 = add i64 %42, -2
  %66 = icmp eq i64 %65, 0
  br i1 %66, label %67, label %40, !llvm.loop !9

67:                                               ; preds = %40, %31
  %68 = phi i64 [ 0, %31 ], [ %64, %40 ]
  %69 = icmp eq i64 %36, 0
  br i1 %69, label %81, label %70

70:                                               ; preds = %67
  %71 = getelementptr inbounds [1005 x i32], [1005 x i32]* %2, i64 0, i64 %68
  %72 = bitcast i32* %71 to <4 x i32>*
  %73 = load <4 x i32>, <4 x i32>* %72, align 16, !tbaa !5
  %74 = getelementptr inbounds i32, i32* %71, i64 4
  %75 = bitcast i32* %74 to <4 x i32>*
  %76 = load <4 x i32>, <4 x i32>* %75, align 16, !tbaa !5
  %77 = shl nsw <4 x i32> %73, <i32 1, i32 1, i32 1, i32 1>
  %78 = shl nsw <4 x i32> %76, <i32 1, i32 1, i32 1, i32 1>
  %79 = bitcast i32* %71 to <4 x i32>*
  store <4 x i32> %77, <4 x i32>* %79, align 16, !tbaa !5
  %80 = bitcast i32* %74 to <4 x i32>*
  store <4 x i32> %78, <4 x i32>* %80, align 16, !tbaa !5
  br label %81

81:                                               ; preds = %67, %70
  %82 = icmp eq i64 %32, %29
  br i1 %82, label %85, label %83

83:                                               ; preds = %28, %81
  %84 = phi i64 [ 0, %28 ], [ %32, %81 ]
  br label %89

85:                                               ; preds = %89, %81
  br i1 %27, label %86, label %107

86:                                               ; preds = %85
  %87 = zext i32 %26 to i64
  %88 = load i32, i32* %7, align 16, !tbaa !5
  br label %96

89:                                               ; preds = %83, %89
  %90 = phi i64 [ %94, %89 ], [ %84, %83 ]
  %91 = getelementptr inbounds [1005 x i32], [1005 x i32]* %2, i64 0, i64 %90
  %92 = load i32, i32* %91, align 4, !tbaa !5
  %93 = shl nsw i32 %92, 1
  store i32 %93, i32* %91, align 4, !tbaa !5
  %94 = add nuw nsw i64 %90, 1
  %95 = icmp eq i64 %94, %29
  br i1 %95, label %85, label %89, !llvm.loop !12

96:                                               ; preds = %86, %96
  %97 = phi i32 [ %88, %86 ], [ %104, %96 ]
  %98 = phi i64 [ 0, %86 ], [ %101, %96 ]
  %99 = getelementptr inbounds [1005 x i32], [1005 x i32]* %2, i64 0, i64 %98
  %100 = sdiv i32 %97, 10
  %101 = add nuw nsw i64 %98, 1
  %102 = getelementptr inbounds [1005 x i32], [1005 x i32]* %2, i64 0, i64 %101
  %103 = load i32, i32* %102, align 4, !tbaa !5
  %104 = add nsw i32 %100, %103
  store i32 %104, i32* %102, align 4, !tbaa !5
  %105 = srem i32 %97, 10
  store i32 %105, i32* %99, align 4, !tbaa !5
  %106 = icmp eq i64 %101, %87
  br i1 %106, label %107, label %96, !llvm.loop !14

107:                                              ; preds = %96, %19, %85, %18, %17
  %108 = phi i32 [ %15, %17 ], [ %15, %18 ], [ %26, %85 ], [ %26, %19 ], [ %26, %96 ]
  %109 = add nuw i32 %16, 1
  %110 = icmp eq i32 %16, %6
  br i1 %110, label %9, label %14, !llvm.loop !15

111:                                              ; preds = %11, %111
  %112 = phi i64 [ %13, %11 ], [ %120, %111 ]
  %113 = phi i32 [ %12, %11 ], [ %114, %111 ]
  %114 = add nsw i32 %113, -1
  %115 = zext i32 %114 to i64
  %116 = getelementptr inbounds [1005 x i32], [1005 x i32]* %2, i64 0, i64 %115
  %117 = load i32, i32* %116, align 4, !tbaa !5
  %118 = call nonnull align 8 dereferenceable(8) %"class.std::basic_ostream"* @_ZNSolsEi(%"class.std::basic_ostream"* nonnull align 8 dereferenceable(8) @_ZSt4cout, i32 %117)
  %119 = icmp sgt i64 %112, 1
  %120 = add nsw i64 %112, -1
  br i1 %119, label %111, label %121, !llvm.loop !16

121:                                              ; preds = %111, %9
  %122 = load i8*, i8** bitcast (%"class.std::basic_ostream"* @_ZSt4cout to i8**), align 8, !tbaa !17
  %123 = getelementptr i8, i8* %122, i64 -24
  %124 = bitcast i8* %123 to i64*
  %125 = load i64, i64* %124, align 8
  %126 = add nsw i64 %125, 240
  %127 = getelementptr inbounds i8, i8* bitcast (%"class.std::basic_ostream"* @_ZSt4cout to i8*), i64 %126
  %128 = bitcast i8* %127 to %"class.std::ctype"**
  %129 = load %"class.std::ctype"*, %"class.std::ctype"** %128, align 8, !tbaa !19
  %130 = icmp eq %"class.std::ctype"* %129, null
  br i1 %130, label %131, label %132

131:                                              ; preds = %121
  call void @_ZSt16__throw_bad_castv() #9
  unreachable

132:                                              ; preds = %121
  %133 = getelementptr inbounds %"class.std::ctype", %"class.std::ctype"* %129, i64 0, i32 8
  %134 = load i8, i8* %133, align 8, !tbaa !23
  %135 = icmp eq i8 %134, 0
  br i1 %135, label %139, label %136

136:                                              ; preds = %132
  %137 = getelementptr inbounds %"class.std::ctype", %"class.std::ctype"* %129, i64 0, i32 9, i64 10
  %138 = load i8, i8* %137, align 1, !tbaa !25
  br label %145

139:                                              ; preds = %132
  call void @_ZNKSt5ctypeIcE13_M_widen_initEv(%"class.std::ctype"* nonnull align 8 dereferenceable(570) %129)
  %140 = bitcast %"class.std::ctype"* %129 to i8 (%"class.std::ctype"*, i8)***
  %141 = load i8 (%"class.std::ctype"*, i8)**, i8 (%"class.std::ctype"*, i8)*** %140, align 8, !tbaa !17
  %142 = getelementptr inbounds i8 (%"class.std::ctype"*, i8)*, i8 (%"class.std::ctype"*, i8)** %141, i64 6
  %143 = load i8 (%"class.std::ctype"*, i8)*, i8 (%"class.std::ctype"*, i8)** %142, align 8
  %144 = call signext i8 %143(%"class.std::ctype"* nonnull align 8 dereferenceable(570) %129, i8 signext 10)
  br label %145

145:                                              ; preds = %136, %139
  %146 = phi i8 [ %138, %136 ], [ %144, %139 ]
  %147 = call nonnull align 8 dereferenceable(8) %"class.std::basic_ostream"* @_ZNSo3putEc(%"class.std::basic_ostream"* nonnull align 8 dereferenceable(8) @_ZSt4cout, i8 signext %146)
  %148 = call nonnull align 8 dereferenceable(8) %"class.std::basic_ostream"* @_ZNSo5flushEv(%"class.std::basic_ostream"* nonnull align 8 dereferenceable(8) %147)
  call void @llvm.lifetime.end.p0i8(i64 4020, i8* nonnull %4) #8
  call void @llvm.lifetime.end.p0i8(i64 4, i8* nonnull %3) #8
  ret i32 0
}

; Function Attrs: argmemonly mustprogress nofree nosync nounwind willreturn
declare void @llvm.lifetime.start.p0i8(i64 immarg, i8* nocapture) #4

; Function Attrs: argmemonly mustprogress nofree nounwind willreturn writeonly
declare void @llvm.memset.p0i8.i64(i8* nocapture writeonly, i8, i64, i1 immarg) #5

declare nonnull align 8 dereferenceable(16) %"class.std::basic_istream"* @_ZNSirsERi(%"class.std::basic_istream"* nonnull align 8 dereferenceable(16), i32* nonnull align 4 dereferenceable(4)) local_unnamed_addr #0

declare nonnull align 8 dereferenceable(8) %"class.std::basic_ostream"* @_ZNSolsEi(%"class.std::basic_ostream"* nonnull align 8 dereferenceable(8), i32) local_unnamed_addr #0

; Function Attrs: argmemonly mustprogress nofree nosync nounwind willreturn
declare void @llvm.lifetime.end.p0i8(i64 immarg, i8* nocapture) #4

declare nonnull align 8 dereferenceable(8) %"class.std::basic_ostream"* @_ZNSo3putEc(%"class.std::basic_ostream"* nonnull align 8 dereferenceable(8), i8 signext) local_unnamed_addr #0

declare nonnull align 8 dereferenceable(8) %"class.std::basic_ostream"* @_ZNSo5flushEv(%"class.std::basic_ostream"* nonnull align 8 dereferenceable(8)) local_unnamed_addr #0

; Function Attrs: noreturn
declare void @_ZSt16__throw_bad_castv() local_unnamed_addr #6

declare void @_ZNKSt5ctypeIcE13_M_widen_initEv(%"class.std::ctype"* nonnull align 8 dereferenceable(570)) local_unnamed_addr #0

; Function Attrs: sspstrong uwtable
define internal void @_GLOBAL__sub_I_1284.cpp() #7 section ".text.startup" {
  tail call void @_ZNSt8ios_base4InitC1Ev(%"class.std::ios_base::Init"* nonnull align 1 dereferenceable(1) @_ZStL8__ioinit)
  %1 = tail call i32 @__cxa_atexit(void (i8*)* bitcast (void (%"class.std::ios_base::Init"*)* @_ZNSt8ios_base4InitD1Ev to void (i8*)*), i8* getelementptr inbounds (%"class.std::ios_base::Init", %"class.std::ios_base::Init"* @_ZStL8__ioinit, i64 0, i32 0), i8* nonnull @__dso_handle) #8
  ret void
}


!llvm.module.flags = !{!0, !1, !2, !3}
!llvm.ident = !{!4}

!0 = !{i32 1, !"wchar_size", i32 4}
!1 = !{i32 7, !"PIC Level", i32 2}
!2 = !{i32 7, !"PIE Level", i32 2}
!3 = !{i32 7, !"uwtable", i32 1}
!4 = !{!"clang version 13.0.0"}
!5 = !{!6, !6, i64 0}
!6 = !{!"int", !7, i64 0}
!7 = !{!"omnipotent char", !8, i64 0}
!8 = !{!"Simple C++ TBAA"}
!9 = distinct !{!9, !10, !11}
!10 = !{!"llvm.loop.mustprogress"}
!11 = !{!"llvm.loop.isvectorized", i32 1}
!12 = distinct !{!12, !10, !13, !11}
!13 = !{!"llvm.loop.unroll.runtime.disable"}
!14 = distinct !{!14, !10}
!15 = distinct !{!15, !10}
!16 = distinct !{!16, !10}
!17 = !{!18, !18, i64 0}
!18 = !{!"vtable pointer", !8, i64 0}
!19 = !{!20, !21, i64 240}
!20 = !{!"_ZTSSt9basic_iosIcSt11char_traitsIcEE", !21, i64 216, !7, i64 224, !22, i64 225, !21, i64 232, !21, i64 240, !21, i64 248, !21, i64 256}
!21 = !{!"any pointer", !7, i64 0}
!22 = !{!"bool", !7, i64 0}
!23 = !{!24, !7, i64 56}
!24 = !{!"_ZTSSt5ctypeIcE", !21, i64 16, !22, i64 24, !21, i64 32, !21, i64 40, !21, i64 48, !7, i64 56, !7, i64 57, !7, i64 313, !7, i64 569}
!25 = !{!7, !7, i64 0}
